; Function Attrs: mustprogress uwtable
define noundef zeroext i1 @_ZNK32pxrInternal_v0_24__pxrReserved__14Hf_PluginEntryltERKS0_(ptr noundef nonnull align 8 dereferenceable(64) %0, ptr noundef nonnull align 8 dereferenceable(64) %1) local_unnamed_addr #0 align 2 personality ptr @__gxx_personality_v0 {
  %3 = getelementptr inbounds nuw i8, ptr %0, i64 40
  %4 = load i32, ptr %3, align 8
  %5 = getelementptr inbounds nuw i8, ptr %1, i64 40
  %6 = load i32, ptr %5, align 8
  %7 = icmp slt i32 %4, %6
  br i1 %7, label %18, label %8

8:                                                ; preds = %2
  %9 = icmp sgt i32 %4, %6
  br i1 %9, label %18, label %10

10:                                               ; preds = %8
  %11 = tail call noundef nonnull align 8 dereferenceable(32) ptr @_ZNK32pxrInternal_v0_24__pxrReserved__6TfType11GetTypeNameB5cxx11Ev(ptr noundef nonnull align 8 dereferenceable(8) %0)
  %12 = tail call noundef nonnull align 8 dereferenceable(32) ptr @_ZNK32pxrInternal_v0_24__pxrReserved__6TfType11GetTypeNameB5cxx11Ev(ptr noundef nonnull align 8 dereferenceable(8) %1)
  %13 = invoke noundef i32 @_ZNKSt7__cxx1112basic_stringIcSt11char_traitsIcESaIcEE7compareERKS4_(ptr noundef nonnull align 8 dereferenceable(32) %11, ptr noundef nonnull align 8 dereferenceable(32) %12)
          to label %_ZStltIcSt11char_traitsIcESaIcEEbRKNSt7__cxx1112basic_stringIT_T0_T1_EESA_.exit unwind label %14

14:                                               ; preds = %10
  %15 = landingpad { ptr, i32 }
          catch ptr null
  %16 = extractvalue { ptr, i32 } %15, 0
  tail call void @__clang_call_terminate(ptr %16) #12
  unreachable

_ZStltIcSt11char_traitsIcESaIcEEbRKNSt7__cxx1112basic_stringIT_T0_T1_EESA_.exit: ; preds = %10
  %17 = icmp slt i32 %13, 0
  br label %18

18:                                               ; preds = %8, %2, %_ZStltIcSt11char_traitsIcESaIcEEbRKNSt7__cxx1112basic_stringIT_T0_T1_EESA_.exit
  %.0 = phi i1 [ %17, %_ZStltIcSt11char_traitsIcESaIcEEbRKNSt7__cxx1112basic_stringIT_T0_T1_EESA_.exit ], [ true, %2 ], [ false, %8 ]
  ret i1 %.0
}